; Function Attrs: nounwind uwtable
define hidden zeroext i1 @SDL_UpdateHapticEffect_REAL(ptr noundef %0, i32 noundef %1, ptr noundef %2) local_unnamed_addr #0 {
  %4 = tail call zeroext i1 @SDL_ObjectValid(ptr noundef %0, i32 noundef 6) #9
  br i1 %4, label %7, label %5

5:                                                ; preds = %3
  %6 = tail call zeroext i1 (ptr, ...) @SDL_SetError_REAL(ptr noundef nonnull @.str, ptr noundef nonnull @.str.1) #9
  br label %34

7:                                                ; preds = %3
  %8 = tail call zeroext i1 @SDL_HIDAPI_HapticIsHidapi(ptr noundef %0) #9
  br i1 %8, label %9, label %11

9:                                                ; preds = %7
  %10 = tail call zeroext i1 @SDL_HIDAPI_HapticUpdateEffect(ptr noundef %0, i32 noundef %1, ptr noundef %2) #9
  br label %34

11:                                               ; preds = %7
  %12 = icmp slt i32 %1, 0
  br i1 %12, label %ValidEffect.exit, label %13

13:                                               ; preds = %11
  %14 = getelementptr inbounds nuw i8, ptr %0, i64 24
  %15 = load i32, ptr %14, align 8
  %.not.i = icmp slt i32 %1, %15
  br i1 %.not.i, label %17, label %ValidEffect.exit

ValidEffect.exit:                                 ; preds = %11, %13
  %16 = tail call zeroext i1 (ptr, ...) @SDL_SetError_REAL(ptr noundef nonnull @.str.23) #9
  br label %34

17:                                               ; preds = %13
  %.not = icmp eq ptr %2, null
  br i1 %.not, label %18, label %20

18:                                               ; preds = %17
  %19 = tail call zeroext i1 (ptr, ...) @SDL_SetError_REAL(ptr noundef nonnull @.str, ptr noundef nonnull @.str.9) #9
  br label %34

20:                                               ; preds = %17
  %21 = load i16, ptr %2, align 8
  %22 = getelementptr inbounds nuw i8, ptr %0, i64 16
  %23 = load ptr, ptr %22, align 8
  %24 = zext nneg i32 %1 to i64
  %25 = getelementptr inbounds nuw %struct.haptic_effect, ptr %23, i64 %24
  %26 = load i16, ptr %25, align 8
  %.not19 = icmp eq i16 %21, %26
  br i1 %.not19, label %29, label %27

27:                                               ; preds = %20
  %28 = tail call zeroext i1 (ptr, ...) @SDL_SetError_REAL(ptr noundef nonnull @.str.10) #9
  br label %34

29:                                               ; preds = %20
  %30 = tail call zeroext i1 @SDL_SYS_HapticUpdateEffect(ptr noundef nonnull %0, ptr noundef nonnull %25, ptr noundef nonnull %2) #9
  br i1 %30, label %31, label %34

31:                                               ; preds = %29
  %32 = load ptr, ptr %22, align 8
  %33 = getelementptr inbounds nuw %struct.haptic_effect, ptr %32, i64 %24
  tail call void @llvm.memcpy.p0.p0.i64(ptr noundef nonnull align 8 dereferenceable(72) %33, ptr noundef nonnull align 8 dereferenceable(72) %2, i64 72, i1 false)
  br label %34

34:                                               ; preds = %ValidEffect.exit, %29, %31, %27, %18, %9, %5
  %.0 = phi i1 [ %10, %9 ], [ %28, %27 ], [ true, %31 ], [ %19, %18 ], [ false, %5 ], [ false, %ValidEffect.exit ], [ false, %29 ]
  ret i1 %.0
}